; Function Attrs: nounwind uwtable
define ptr @l___private_Lake_DSL_Require_0__Lake_DSL_quoteOptTerm___rarg___lambda__6(ptr noundef %0, ptr noundef %1, ptr noundef %2, ptr noundef %3, ptr noundef %4, ptr noundef %5) #0 {
  %7 = getelementptr inbounds nuw i8, ptr %0, i64 24
  %8 = load ptr, ptr %7, align 8, !tbaa !4
  %9 = ptrtoint ptr %8 to i64
  %10 = and i64 %9, 1
  %.not = icmp eq i64 %10, 0
  br i1 %.not, label %11, label %lean_inc.exit

11:                                               ; preds = %6
  %.val.i = load i32, ptr %8, align 4, !tbaa !8
  %12 = icmp sgt i32 %.val.i, 0
  br i1 %12, label %13, label %15, !prof !11

13:                                               ; preds = %11
  %14 = add nuw i32 %.val.i, 1
  store i32 %14, ptr %8, align 4, !tbaa !8
  br label %lean_inc.exit

15:                                               ; preds = %11
  %.not.i15 = icmp eq i32 %.val.i, 0
  br i1 %.not.i15, label %lean_inc.exit, label %16

16:                                               ; preds = %15
  tail call void @lean_inc_ref_cold(ptr noundef nonnull %8) #5
  br label %lean_inc.exit

lean_inc.exit:                                    ; preds = %16, %15, %13, %6
  %17 = ptrtoint ptr %0 to i64
  %18 = and i64 %17, 1
  %.not16 = icmp eq i64 %18, 0
  br i1 %.not16, label %19, label %lean_dec.exit

19:                                               ; preds = %lean_inc.exit
  %20 = load i32, ptr %0, align 4, !tbaa !8
  %21 = icmp sgt i32 %20, 1
  br i1 %21, label %22, label %24, !prof !11

22:                                               ; preds = %19
  %23 = add nsw i32 %20, -1
  store i32 %23, ptr %0, align 4, !tbaa !8
  br label %lean_dec.exit

24:                                               ; preds = %19
  %.not.i = icmp eq i32 %20, 0
  br i1 %.not.i, label %lean_dec.exit, label %25

25:                                               ; preds = %24
  tail call void @lean_dec_ref_cold(ptr noundef nonnull %0) #5
  br label %lean_dec.exit

lean_dec.exit:                                    ; preds = %25, %24, %22, %lean_inc.exit
  tail call void @lean_inc_heartbeat() #5
  %26 = tail call noalias ptr @mi_malloc_small(i64 noundef 56) #5
  %27 = icmp eq ptr %26, null
  br i1 %27, label %28, label %lean_alloc_closure.exit

28:                                               ; preds = %lean_dec.exit
  tail call void @lean_internal_panic_out_of_memory() #6
  unreachable

lean_alloc_closure.exit:                          ; preds = %lean_dec.exit
  %29 = getelementptr inbounds nuw i8, ptr %26, i64 4
  store i32 1, ptr %26, align 4, !tbaa !8
  store i32 -184549320, ptr %29, align 4
  %30 = getelementptr inbounds nuw i8, ptr %26, i64 8
  store ptr @l___private_Lake_DSL_Require_0__Lake_DSL_quoteOptTerm___rarg___lambda__5, ptr %30, align 8, !tbaa !4
  %31 = getelementptr inbounds nuw i8, ptr %26, i64 16
  store i16 5, ptr %31, align 8, !tbaa !12
  %32 = getelementptr inbounds nuw i8, ptr %26, i64 18
  store i16 4, ptr %32, align 2, !tbaa !12
  %33 = getelementptr inbounds nuw i8, ptr %26, i64 24
  store ptr %1, ptr %33, align 8, !tbaa !4
  %34 = getelementptr inbounds nuw i8, ptr %26, i64 32
  store ptr %5, ptr %34, align 8, !tbaa !4
  %35 = getelementptr inbounds nuw i8, ptr %26, i64 40
  store ptr %2, ptr %35, align 8, !tbaa !4
  %36 = getelementptr inbounds nuw i8, ptr %26, i64 48
  store ptr %3, ptr %36, align 8, !tbaa !4
  %37 = tail call ptr @lean_apply_4(ptr noundef %4, ptr noundef nonnull inttoptr (i64 1 to ptr), ptr noundef nonnull inttoptr (i64 1 to ptr), ptr noundef %8, ptr noundef nonnull %26) #5
  ret ptr %37
}